; Function Attrs: nounwind uwtable
define range(i32 -1, 1) i32 @H5AC_mark_entry_unserialized(ptr noundef %0) local_unnamed_addr #4 {
  %2 = load i8, ptr @H5AC_init_g, align 1, !tbaa !3, !range !7, !noundef !8
  %3 = trunc nuw i8 %2 to i1
  %4 = load i8, ptr @H5_libterm_g, align 1, !range !7
  %5 = trunc nuw i8 %4 to i1
  %6 = select i1 %3, i1 true, i1 %5
  br i1 %6, label %7, label %.thread, !prof !9

.thread:                                          ; preds = %1
  store i8 1, ptr @H5AC_init_g, align 1, !tbaa !3
  br label %10

7:                                                ; preds = %1
  %8 = xor i1 %5, true
  %9 = select i1 %3, i1 true, i1 %8
  br i1 %9, label %10, label %33, !prof !41

10:                                               ; preds = %.thread, %7
  %11 = load ptr, ptr %0, align 8, !tbaa !124
  %12 = tail call i32 @H5C_mark_entry_unserialized(ptr noundef nonnull %0) #8
  %13 = icmp slt i32 %12, 0
  br i1 %13, label %14, label %18

14:                                               ; preds = %10
  %15 = load i64, ptr @H5E_CACHE_g, align 8, !tbaa !42
  %16 = load i64, ptr @H5E_CANTMARKUNSERIALIZED_g, align 8, !tbaa !42
  %17 = tail call i32 (ptr, ptr, i32, i64, i64, ptr, ...) @H5E_printf_stack(ptr noundef nonnull @.str, ptr noundef nonnull @__func__.H5AC_mark_entry_unserialized, i32 noundef 946, i64 noundef %15, i64 noundef %16, ptr noundef nonnull @.str.21) #8
  br label %18

18:                                               ; preds = %10, %14
  %.0 = phi i32 [ -1, %14 ], [ 0, %10 ]
  %.not = icmp eq ptr %11, null
  br i1 %.not, label %33, label %19

19:                                               ; preds = %18
  %20 = getelementptr inbounds nuw i8, ptr %11, i64 8
  %21 = load ptr, ptr %20, align 8, !tbaa !52
  %.not15 = icmp eq ptr %21, null
  br i1 %.not15, label %33, label %22

22:                                               ; preds = %19
  %23 = getelementptr inbounds nuw i8, ptr %21, i64 1
  %24 = load i8, ptr %23, align 1, !tbaa !60, !range !7, !noundef !8
  %25 = trunc nuw i8 %24 to i1
  br i1 %25, label %26, label %33

26:                                               ; preds = %22
  %27 = tail call i32 @H5C_log_write_mark_unserialized_entry_msg(ptr noundef nonnull %11, ptr noundef nonnull %0, i32 noundef %.0) #8
  %28 = icmp slt i32 %27, 0
  br i1 %28, label %29, label %33

29:                                               ; preds = %26
  %30 = load i64, ptr @H5E_CACHE_g, align 8, !tbaa !42
  %31 = load i64, ptr @H5E_LOGGING_g, align 8, !tbaa !42
  %32 = tail call i32 (ptr, ptr, i32, i64, i64, ptr, ...) @H5E_printf_stack(ptr noundef nonnull @.str, ptr noundef nonnull @__func__.H5AC_mark_entry_unserialized, i32 noundef 953, i64 noundef %30, i64 noundef %31, ptr noundef nonnull @.str.7) #8
  br label %33

33:                                               ; preds = %18, %19, %26, %29, %22, %7
  %.1 = phi i32 [ -1, %29 ], [ %.0, %26 ], [ %.0, %22 ], [ %.0, %19 ], [ %.0, %18 ], [ 0, %7 ]
  ret i32 %.1
}